Microchip MPLAB XC8 Compiler V3.00

Linker command line:

-W-3 \
  --edf=C:/Program Files/Microchip/MPLABX/v6.25/packs/Microchip/PIC18F-K_DFP/1.14.301/xc8\pic\dat\20241213203129_en.msgs \
  -cn -h+dist/default/production\Alarm_System.X.production.sym \
  --cmf=dist/default/production\Alarm_System.X.production.cmf -z -Q18F46K22 \
  -oC:\Users\josem\AppData\Local\Temp\xcAsnqo.\driver_tmp_3.o \
  --defsym=__MPLAB_BUILD=1 --fixupoverflow=error \
  -Mdist/default/production/Alarm_System.X.production.map \
  --md=C:\Users\josem\AppData\Local\Temp\xcAsnqo.\driver_tmp_0.dat -E1 \
  -ver=XC8 Compiler -ACODE=00h-0FFFFh -ACONST=00h-0FFFFh \
  -ASMALLCONST=01000h-010FFhx240 -AMEDIUMCONST=01000h-0FFFFh \
  -ACOMRAM=01h-05Fh -AABS1=00h-0F37h -ABIGRAM=01h-0F37h \
  -ARAM=060h-0FFh,0100h-01FFhx14,0F00h-0F37h -ABANK0=060h-0FFh \
  -ABANK1=0100h-01FFh -ABANK2=0200h-02FFh -ABANK3=0300h-03FFh \
  -ABANK4=0400h-04FFh -ABANK5=0500h-05FFh -ABANK6=0600h-06FFh \
  -ABANK7=0700h-07FFh -ABANK8=0800h-08FFh -ABANK9=0900h-09FFh \
  -ABANK10=0A00h-0AFFh -ABANK11=0B00h-0BFFh -ABANK12=0C00h-0CFFh \
  -ABANK13=0D00h-0DFFh -ABANK14=0E00h-0EFFh -ABANK15=0F00h-0F37h \
  -ASFR=0F38h-0F5Fh,0F60h-0FFFh -ABIGSFR=0F38h-0FFFh \
  -ACONFIG=0300000h-030000Dh -AIDLOC=0200000h-0200007h \
  -AEEDATA=0F00000h-0F003FFh -peeprom_data=EEDATA \
  -preset_vec=00h,intcode=8h,intcodelo=18h,sivt_lo,sivt_hi=CODE \
  -ppowerup=CODE,init -pramtop=01000h -psmallconst=SMALLCONST \
  -pmediumconst=MEDIUMCONST -pconst=CONST -AFARRAM=00h-00h \
  -prdata=COMRAM,nvrram=COMRAM,nvbit=COMRAM,rbss=COMRAM,rbit=COMRAM \
  -pfarbss=FARRAM,fardata=FARRAM,nvFARRAM=FARRAM \
  -pintsave_regs=BIGRAM,bigbss=BIGRAM,bigdata=BIGRAM -pbss=RAM \
  -pidata=CODE,irdata=CODE,ibigdata=CODE,ifardata=CODE -prparam=COMRAM \
  C:\Users\josem\AppData\Local\Temp\xcAsnqo.\driver_tmp_9.o \
  dist/default/production\Alarm_System.X.production.o 

Object code version is 3.11

Machine type is 18F46K22



                Name                               Link     Load   Length Selector   Space Scale
C:\Users\josem\AppData\Local\Temp\xcAsnqo.\driver_tmp_9.o
                config                           300000   300000        E        0       4
                init                                 8A       8A        4        4       0
                reset_vec                             0        0        4        0       0
dist/default/production\Alarm_System.X.production.o
                intcode                               8        8       82        4       0
                config                           300000   300000        E        0       4
                temp                                 2A       2A        1        1       1
                smallconst                         1000     1000       76      800       0
                text35                             1B30     1B30        6      83B       0
                text34                             1B28     1B28        8      83B       0
                text33                             1A46     1A46       22      83B       0
                text32                             1B20     1B20        8      83B       0
                text31                             1B3C     1B3C        2      83B       0
                text30                             19AA     19AA       2C      83B       0
                text29                             1B18     1B18        8      83B       0
                text27                             1A22     1A22       24      83B       0
                text26                             19FE     19FE       24      83B       0
                text25                             1706     1706       78      83B       0
                text24                             1AA2     1AA2       18      83B       0
                text23                             185A     185A       40      83B       0
                text22                             1A68     1A68       1E      83B       0
                text21                             1670     1670       96      83B       0
                text20                             1AD0     1AD0       10      83B       0
                text19                             1B0E     1B0E        A      83B       0
                text18                             1B04     1B04        A      83B       0
                text17                             1AFA     1AFA        A      83B       0
                text16                             1942     1942       38      83B       0
                text15                             1B36     1B36        4      83B       0
                text14                             1AEE     1AEE        C      83B       0
                text13                             190A     190A       38      83B       0
                text12                             1ABA     1ABA       16      83B       0
                text11                             1076     1076      25E      83B       0
                text10                             1A86     1A86       1C      83B       0
                text9                              1AE0     1AE0        E      83B       0
                text8                              18D2     18D2       38      83B       0
                text7                              189A     189A       38      83B       0
                text6                              197A     197A       30      83B       0
                text5                              177E     177E       72      83B       0
                text4                              17F0     17F0       6A      83B       0
                text3                              1436     1436      132      83B       0
                text2                              1B3A     1B3A        2      83B       0
                text1                              12D4     12D4      162      83B       0
                text0                              1568     1568      108      83B       0
                cstackCOMRAM                          1        1       16        1       1
                dataCOMRAM                           29       29        1        1       1
                bssCOMRAM                            17       17        C        1       1
                cinit                              19D6     19D6       28      83B       0
                nvCOMRAM                             23       23        6        1       1
                idataCOMRAM                        1B3E     1B3E        1      83B       0

TOTAL           Name                               Link     Load   Length     Space
        CLASS   CODE           
                intcode                               8        8       82         0
                init                                 8A       8A        4         0
                reset_vec                             0        0        4         0
                text35                             1B30     1B30        6         0
                text34                             1B28     1B28        8         0
                text33                             1A46     1A46       22         0
                text32                             1B20     1B20        8         0
                text31                             1B3C     1B3C        2         0
                text30                             19AA     19AA       2C         0
                text29                             1B18     1B18        8         0
                text27                             1A22     1A22       24         0
                text26                             19FE     19FE       24         0
                text25                             1706     1706       78         0
                text24                             1AA2     1AA2       18         0
                text23                             185A     185A       40         0
                text22                             1A68     1A68       1E         0
                text21                             1670     1670       96         0
                text20                             1AD0     1AD0       10         0
                text19                             1B0E     1B0E        A         0
                text18                             1B04     1B04        A         0
                text17                             1AFA     1AFA        A         0
                text16                             1942     1942       38         0
                text15                             1B36     1B36        4         0
                text14                             1AEE     1AEE        C         0
                text13                             190A     190A       38         0
                text12                             1ABA     1ABA       16         0
                text11                             1076     1076      25E         0
                text10                             1A86     1A86       1C         0
                text9                              1AE0     1AE0        E         0
                text8                              18D2     18D2       38         0
                text7                              189A     189A       38         0
                text6                              197A     197A       30         0
                text5                              177E     177E       72         0
                text4                              17F0     17F0       6A         0
                text3                              1436     1436      132         0
                text2                              1B3A     1B3A        2         0
                text1                              12D4     12D4      162         0
                text0                              1568     1568      108         0
                cinit                              19D6     19D6       28         0
                idataCOMRAM                        1B3E     1B3E        1         0

        CLASS   CONST          

        CLASS   SMALLCONST     
                smallconst                         1000     1000       76         0

        CLASS   MEDIUMCONST    

        CLASS   COMRAM         
                temp                                 2A       2A        1         1
                cstackCOMRAM                          1        1       16         1
                dataCOMRAM                           29       29        1         1
                bssCOMRAM                            17       17        C         1
                nvCOMRAM                             23       23        6         1

        CLASS   ABS1           

        CLASS   BIGRAM         

        CLASS   RAM            

        CLASS   BANK0          

        CLASS   BANK1          

        CLASS   BANK2          

        CLASS   BANK3          

        CLASS   BANK4          

        CLASS   BANK5          

        CLASS   BANK6          

        CLASS   BANK7          

        CLASS   BANK8          

        CLASS   BANK9          

        CLASS   BANK10         

        CLASS   BANK11         

        CLASS   BANK12         

        CLASS   BANK13         

        CLASS   BANK14         

        CLASS   BANK15         

        CLASS   SFR            

        CLASS   BIGSFR         

        CLASS   CONFIG         
                config                           300000   300000        E         4

        CLASS   IDLOC          

        CLASS   EEDATA         

        CLASS   FARRAM         

        CLASS   HEAP           

        CLASS   STACK          



SEGMENTS        Name                           Load    Length   Top    Selector   Space  Class

                reset_vec                      000000  000004  000004         0       0  CODE    
                cstackCOMRAM                   000001  00002A  00002B         1       1  COMRAM  
                intcode                        000008  000086  00008E         4       0  CODE    
                smallconst                     001000  000076  001076       800       0  SMALLCON
                text11                         001076  000AC9  001B3F       83B       0  CODE    


UNUSED ADDRESS RANGES

        Name                Unused          Largest block    Delta
        BANK0            000060-0000FF               A0
        BANK1            000100-0001FF              100
        BANK10           000A00-000AFF              100
        BANK11           000B00-000BFF              100
        BANK12           000C00-000CFF              100
        BANK13           000D00-000DFF              100
        BANK14           000E00-000EFF              100
        BANK15           000F00-000F37               38
        BANK2            000200-0002FF              100
        BANK3            000300-0003FF              100
        BANK4            000400-0004FF              100
        BANK5            000500-0005FF              100
        BANK6            000600-0006FF              100
        BANK7            000700-0007FF              100
        BANK8            000800-0008FF              100
        BANK9            000900-0009FF              100
        BIGRAM           00002B-000F37              F0D
        BIGSFR           000F38-000FFF               C8
        CODE             000004-000007                4
                         00008E-000FFF              F72
                         001B3F-00FFFF             E4C1
        COMRAM           00002B-00005F               35
        CONST            000004-000007                4
                         00008E-000FFF              F72
                         001B3F-00FFFF             E4C1
        EEDATA           F00000-F003FF              400
        IDLOC            200000-200007                8
        MEDIUMCONST      001B3F-00FFFF             E4C1
        RAM              000060-000F37              100
        SFR              000F38-000FFF               28
        SMALLCONST       001B3F-00FFFF              100

                                  Symbol Table

?_strcmp                                  cstackCOMRAM 000004
I2C_Write@byte                            cstackCOMRAM 000007
I2C_Write@i                               cstackCOMRAM 000008
INT0_SetInterruptHandler@InterruptHandler cstackCOMRAM 000004
INT1_SetInterruptHandler@InterruptHandler cstackCOMRAM 000004
INT2_SetInterruptHandler@InterruptHandler cstackCOMRAM 000004
LCD_SendByte@byte                         cstackCOMRAM 00000F
LCD_SendByte@isData                       cstackCOMRAM 00000E
LCD_SendByteI2C@byte                      cstackCOMRAM 000009
LCD_SendChar@c                            cstackCOMRAM 000010
LCD_SendNibble@byte_to_send               cstackCOMRAM 00000D
LCD_SendNibble@isData                     cstackCOMRAM 00000A
LCD_SendNibble@nibble                     cstackCOMRAM 00000C
LCD_SendString@str                        cstackCOMRAM 000011
LCD_SetCursor@col                         cstackCOMRAM 000010
LCD_SetCursor@row                         cstackCOMRAM 000012
LCD_SetCursor@row_offsets                 smallconst   001011
_ADCON0                                   (abs)        000FC2
_ADCON0bits                               (abs)        000FC2
_ADCON1                                   (abs)        000FC1
_ADCON2                                   (abs)        000FC0
_ADC_Initialize                           text20       001AD0
_ADC_InterruptHandler                     bssCOMRAM    000017
_ADRESH                                   (abs)        000FC4
_ADRESL                                   (abs)        000FC3
_ANSELA                                   (abs)        000F38
_ANSELAbits                               (abs)        000F38
_ANSELB                                   (abs)        000F39
_ANSELC                                   (abs)        000F3A
_ANSELD                                   (abs)        000F3B
_ANSELE                                   (abs)        000F3C
_EXT_INT_Initialize                       text16       001942
_I2C_Start                                text27       001A22
_I2C_Stop                                 text26       0019FE
_I2C_Write                                text25       001706
_INT0_CallBack                            text35       001B30
_INT0_DefaultInterruptHandler             (abs)        000000
_INT0_ISR                                 text34       001B28
_INT0_InterruptHandler                    nvCOMRAM     000027
_INT0_SetInterruptHandler                 text19       001B0E
_INT1_CallBack                            text33       001A46
_INT1_DefaultInterruptHandler             (abs)        000000
_INT1_ISR                                 text32       001B20
_INT1_InterruptHandler                    nvCOMRAM     000025
_INT1_SetInterruptHandler                 text18       001B04
_INT2_CallBack                            text30       0019AA
_INT2_DefaultInterruptHandler             text31       001B3C
_INT2_ISR                                 text29       001B18
_INT2_InterruptHandler                    nvCOMRAM     000023
_INT2_SetInterruptHandler                 text17       001AFA
_INTCON2bits                              (abs)        000FF1
_INTCON3bits                              (abs)        000FF0
_INTCONbits                               (abs)        000FF2
_INTERRUPT_Initialize                     text15       001B36
_INTERRUPT_InterruptManager               intcode      000008
_KPD_GetKey                               text11       001076
_LATA                                     (abs)        000F89
_LATB                                     (abs)        000F8A
_LATC                                     (abs)        000F8B
_LATCbits                                 (abs)        000F8B
_LATD                                     (abs)        000F8C
_LATDbits                                 (abs)        000F8C
_LATE                                     (abs)        000F8D
_LATEbits                                 (abs)        000F8D
_LCD_Clear                                text10       001A86
_LCD_Init                                 text21       001670
_LCD_SendByte                             text22       001A68
_LCD_SendByteI2C                          text24       001AA2
_LCD_SendChar                             text9        001AE0
_LCD_SendNibble                           text23       00185A
_LCD_SendString                           text8        0018D2
_LCD_SetCursor                            text7        00189A
_OSCCON                                   (abs)        000FD3
_OSCCON2                                  (abs)        000FD2
_OSCILLATOR_Initialize                    text14       001AEE
_OSCTUNE                                  (abs)        000F9B
_PIN_MANAGER_Initialize                   text13       00190A
_PORTCbits                                (abs)        000F82
_PORTDbits                                (abs)        000F83
_RCONbits                                 (abs)        000FD0
_SYSTEM_Initialize                        text12       001ABA
_TRISA                                    (abs)        000F92
_TRISB                                    (abs)        000F93
_TRISC                                    (abs)        000F94
_TRISCbits                                (abs)        000F94
_TRISD                                    (abs)        000F95
_TRISE                                    (abs)        000F96
_WPUB                                     (abs)        000F61
__HRAM                                    (abs)        000000
__H__absolute__                           __absolute__ 000000
__Habs1                                   abs1         000000
__Hbank0                                  bank0        000000
__Hbank1                                  bank1        000000
__Hbank10                                 bank10       000000
__Hbank11                                 bank11       000000
__Hbank12                                 bank12       000000
__Hbank13                                 bank13       000000
__Hbank14                                 bank14       000000
__Hbank15                                 bank15       000000
__Hbank2                                  bank2        000000
__Hbank3                                  bank3        000000
__Hbank4                                  bank4        000000
__Hbank5                                  bank5        000000
__Hbank6                                  bank6        000000
__Hbank7                                  bank7        000000
__Hbank8                                  bank8        000000
__Hbank9                                  bank9        000000
__Hbigbss                                 bigbss       000000
__Hbigdata                                bigdata      000000
__Hbigram                                 bigram       000000
__Hbigsfr                                 bigsfr       000000
__Hbss                                    bss          000000
__HbssCOMRAM                              bssCOMRAM    000000
__Hcinit                                  cinit        000000
__Hclrtext                                clrtext      000000
__Hcomram                                 comram       000000
__Hconfig                                 config       30000E
__Hconst                                  const        000000
__HcstackCOMRAM                           cstackCOMRAM 000000
__Hdata                                   data         000000
__HdataCOMRAM                             dataCOMRAM   000000
__Heeprom_data                            eeprom_data  000000
__Hfarbss                                 farbss       000000
__Hfardata                                fardata      000000
__Hheap                                   heap         000000
__Hibigdata                               ibigdata     000000
__Hidata                                  idata        000000
__HidataCOMRAM                            idataCOMRAM  000000
__Hidloc                                  idloc        000000
__Hifardata                               ifardata     000000
__Hinit                                   init         00008E
__Hintcode                                intcode      00008A
__Hintcode_body                           intcode_body 000000
__Hintcodelo                              intcodelo    000018
__Hintentry                               intentry     000000
__Hintret                                 intret       000000
__Hintsave_regs                           intsave_regs 000000
__Hirdata                                 irdata       000000
__Hmediumconst                            mediumconst  000000
__HnvCOMRAM                               nvCOMRAM     000000
__HnvFARRAM                               nvFARRAM     000000
__Hnvbit                                  nvbit        000000
__Hnvrram                                 nvrram       000000
__Hparam                                  rparam       000000
__Hpowerup                                powerup      000000
__Hram                                    ram          000000
__Hramtop                                 ramtop       001000
__Hrbit                                   rbit         000000
__Hrbss                                   rbss         000000
__Hrdata                                  rdata        000000
__Hreset_vec                              reset_vec    000004
__Hrparam                                 rparam       000000
__Hsfr                                    sfr          000000
__Hsivt_hi                                sivt_hi      000000
__Hsivt_lo                                sivt_lo      000018
__Hsmallconst                             smallconst   001076
__Hspace_0                                (abs)        001B3F
__Hspace_1                                (abs)        00002B
__Hspace_2                                (abs)        000000
__Hspace_4                                (abs)        60000E
__Hstack                                  stack        000000
__Hstruct                                 struct       000000
__Htemp                                   temp         00002B
__Htext                                   text         000000
__Htext0                                  text0        000000
__Htext1                                  text1        000000
__Htext10                                 text10       000000
__Htext11                                 text11       000000
__Htext12                                 text12       000000
__Htext13                                 text13       000000
__Htext14                                 text14       000000
__Htext15                                 text15       000000
__Htext16                                 text16       000000
__Htext17                                 text17       000000
__Htext18                                 text18       000000
__Htext19                                 text19       000000
__Htext2                                  text2        000000
__Htext20                                 text20       000000
__Htext21                                 text21       000000
__Htext22                                 text22       000000
__Htext23                                 text23       000000
__Htext24                                 text24       000000
__Htext25                                 text25       000000
__Htext26                                 text26       000000
__Htext27                                 text27       000000
__Htext29                                 text29       000000
__Htext3                                  text3        000000
__Htext30                                 text30       000000
__Htext31                                 text31       000000
__Htext32                                 text32       000000
__Htext33                                 text33       000000
__Htext34                                 text34       000000
__Htext35                                 text35       000000
__Htext4                                  text4        000000
__Htext5                                  text5        000000
__Htext6                                  text6        000000
__Htext7                                  text7        000000
__Htext8                                  text8        000000
__Htext9                                  text9        000000
__LRAM                                    (abs)        000001
__L__absolute__                           __absolute__ 000000
__Labs1                                   abs1         000000
__Lbank0                                  bank0        000000
__Lbank1                                  bank1        000000
__Lbank10                                 bank10       000000
__Lbank11                                 bank11       000000
__Lbank12                                 bank12       000000
__Lbank13                                 bank13       000000
__Lbank14                                 bank14       000000
__Lbank15                                 bank15       000000
__Lbank2                                  bank2        000000
__Lbank3                                  bank3        000000
__Lbank4                                  bank4        000000
__Lbank5                                  bank5        000000
__Lbank6                                  bank6        000000
__Lbank7                                  bank7        000000
__Lbank8                                  bank8        000000
__Lbank9                                  bank9        000000
__Lbigbss                                 bigbss       000000
__Lbigdata                                bigdata      000000
__Lbigram                                 bigram       000000
__Lbigsfr                                 bigsfr       000000
__Lbss                                    bss          000000
__LbssCOMRAM                              bssCOMRAM    000000
__Lcinit                                  cinit        000000
__Lclrtext                                clrtext      000000
__Lcomram                                 comram       000000
__Lconfig                                 config       000000
__Lconst                                  const        000000
__LcstackCOMRAM                           cstackCOMRAM 000000
__Ldata                                   data         000000
__LdataCOMRAM                             dataCOMRAM   000000
__Leeprom_data                            eeprom_data  000000
__Lfarbss                                 farbss       000000
__Lfardata                                fardata      000000
__Lheap                                   heap         000000
__Libigdata                               ibigdata     000000
__Lidata                                  idata        000000
__LidataCOMRAM                            idataCOMRAM  000000
__Lidloc                                  idloc        000000
__Lifardata                               ifardata     000000
__Linit                                   init         00008A
__Lintcode                                intcode      000008
__Lintcode_body                           intcode_body 000000
__Lintcodelo                              intcodelo    000018
__Lintentry                               intentry     000000
__Lintret                                 intret       000000
__Lintsave_regs                           intsave_regs 000000
__Lirdata                                 irdata       000000
__Lmediumconst                            mediumconst  000000
__LnvCOMRAM                               nvCOMRAM     000000
__LnvFARRAM                               nvFARRAM     000000
__Lnvbit                                  nvbit        000000
__Lnvrram                                 nvrram       000000
__Lparam                                  rparam       000000
__Lpowerup                                powerup      000000
__Lram                                    ram          000000
__Lramtop                                 ramtop       001000
__Lrbit                                   rbit         000000
__Lrbss                                   rbss         000000
__Lrdata                                  rdata        000000
__Lreset_vec                              reset_vec    000000
__Lrparam                                 rparam       000000
__Lsfr                                    sfr          000000
__Lsivt_hi                                sivt_hi      000000
__Lsivt_lo                                sivt_lo      000018
__Lsmallconst                             smallconst   001000
__Lspace_0                                (abs)        000000
__Lspace_1                                (abs)        000000
__Lspace_2                                (abs)        000000
__Lspace_4                                (abs)        000000
__Lstack                                  stack        000000
__Lstruct                                 struct       000000
__Ltemp                                   temp         00002A
__Ltext                                   text         000000
__Ltext0                                  text0        000000
__Ltext1                                  text1        000000
__Ltext10                                 text10       000000
__Ltext11                                 text11       000000
__Ltext12                                 text12       000000
__Ltext13                                 text13       000000
__Ltext14                                 text14       000000
__Ltext15                                 text15       000000
__Ltext16                                 text16       000000
__Ltext17                                 text17       000000
__Ltext18                                 text18       000000
__Ltext19                                 text19       000000
__Ltext2                                  text2        000000
__Ltext20                                 text20       000000
__Ltext21                                 text21       000000
__Ltext22                                 text22       000000
__Ltext23                                 text23       000000
__Ltext24                                 text24       000000
__Ltext25                                 text25       000000
__Ltext26                                 text26       000000
__Ltext27                                 text27       000000
__Ltext29                                 text29       000000
__Ltext3                                  text3        000000
__Ltext30                                 text30       000000
__Ltext31                                 text31       000000
__Ltext32                                 text32       000000
__Ltext33                                 text33       000000
__Ltext34                                 text34       000000
__Ltext35                                 text35       000000
__Ltext4                                  text4        000000
__Ltext5                                  text5        000000
__Ltext6                                  text6        000000
__Ltext7                                  text7        000000
__Ltext8                                  text8        000000
__Ltext9                                  text9        000000
__S0                                      (abs)        001B3F
__S1                                      (abs)        00002B
__S4                                      (abs)        000000
__S5                                      (abs)        000000
___heap_hi                                (abs)        000000
___heap_lo                                (abs)        000000
___inthi_sp                               stack        000000
___inthi_stack_hi                         stack        000000
___inthi_stack_lo                         stack        000000
___intlo_sp                               stack        000000
___intlo_stack_hi                         stack        000000
___intlo_stack_lo                         stack        000000
___param_bank                             (abs)        000000
___rparam_used                            (abs)        000001
___sp                                     stack        000000
___stack_hi                               stack        000000
___stack_lo                               stack        000000
__accesstop                               (abs)        000060
__activetblptr                            (abs)        000003
__backlight_state                         dataCOMRAM   000029
__end_ofLCD_SetCursor@row_offsets         smallconst   001015
__end_of_ADC_Initialize                   text20       001AE0
__end_of_EXT_INT_Initialize               text16       00197A
__end_of_I2C_Start                        text27       001A46
__end_of_I2C_Stop                         text26       001A22
__end_of_I2C_Write                        text25       00177E
__end_of_INT0_CallBack                    text35       001B36
__end_of_INT0_ISR                         text34       001B30
__end_of_INT0_SetInterruptHandler         text19       001B18
__end_of_INT1_CallBack                    text33       001A68
__end_of_INT1_ISR                         text32       001B28
__end_of_INT1_SetInterruptHandler         text18       001B0E
__end_of_INT2_CallBack                    text30       0019D6
__end_of_INT2_DefaultInterruptHandler     text31       001B3E
__end_of_INT2_ISR                         text29       001B20
__end_of_INT2_SetInterruptHandler         text17       001B04
__end_of_INTERRUPT_Initialize             text15       001B3A
__end_of_INTERRUPT_InterruptManager       intcode      00008A
__end_of_KPD_GetKey                       text11       0012D4
__end_of_LCD_Clear                        text10       001AA2
__end_of_LCD_Init                         text21       001706
__end_of_LCD_SendByte                     text22       001A86
__end_of_LCD_SendByteI2C                  text24       001ABA
__end_of_LCD_SendChar                     text9        001AEE
__end_of_LCD_SendNibble                   text23       00189A
__end_of_LCD_SendString                   text8        00190A
__end_of_LCD_SetCursor                    text7        0018D2
__end_of_OSCILLATOR_Initialize            text14       001AFA
__end_of_PIN_MANAGER_Initialize           text13       001942
__end_of_SYSTEM_Initialize                text12       001AD0
__end_of__initialization                  cinit        0019F4
__end_of_alarm_disarmed                   text5        0017F0
__end_of_alert_alarm                      text3        001568
__end_of_armed_alarm                      text2        001B3C
__end_of_keys                             smallconst   001011
__end_of_main                             text0        001670
__end_of_memset                           text6        0019AA
__end_of_show_pin_screen                  text1        001436
__end_of_strcmp                           text4        00185A
__initialization                          cinit        0019D6
__mediumconst                             smallconst   001000
__pbssCOMRAM                              bssCOMRAM    000017
__pcinit                                  cinit        0019D6
__pcstackCOMRAM                           cstackCOMRAM 000001
__pdataCOMRAM                             dataCOMRAM   000029
__pidataCOMRAM                            idataCOMRAM  001B3E
__pintcode                                intcode      000008
__pnvCOMRAM                               nvCOMRAM     000023
__psmallconst                             smallconst   001000
__ptext0                                  text0        001568
__ptext1                                  text1        0012D4
__ptext10                                 text10       001A86
__ptext11                                 text11       001076
__ptext12                                 text12       001ABA
__ptext13                                 text13       00190A
__ptext14                                 text14       001AEE
__ptext15                                 text15       001B36
__ptext16                                 text16       001942
__ptext17                                 text17       001AFA
__ptext18                                 text18       001B04
__ptext19                                 text19       001B0E
__ptext2                                  text2        001B3A
__ptext20                                 text20       001AD0
__ptext21                                 text21       001670
__ptext22                                 text22       001A68
__ptext23                                 text23       00185A
__ptext24                                 text24       001AA2
__ptext25                                 text25       001706
__ptext26                                 text26       0019FE
__ptext27                                 text27       001A22
__ptext29                                 text29       001B18
__ptext3                                  text3        001436
__ptext30                                 text30       0019AA
__ptext31                                 text31       001B3C
__ptext32                                 text32       001B20
__ptext33                                 text33       001A46
__ptext34                                 text34       001B28
__ptext35                                 text35       001B30
__ptext4                                  text4        0017F0
__ptext5                                  text5        00177E
__ptext6                                  text6        00197A
__ptext7                                  text7        00189A
__ptext8                                  text8        0018D2
__ptext9                                  text9        001AE0
__ramtop                                  ramtop       001000
__smallconst                              smallconst   001000
_alarm_disarmed                           text5        00177E
_alert_alarm                              text3        001436
_armed_alarm                              text2        001B3A
_g_estado_actual                          bssCOMRAM    00001C
_g_intrusion_flag                         bssCOMRAM    00001D
_g_pin_buffer                             bssCOMRAM    00001E
_g_pin_index                              bssCOMRAM    00001B
_keys                                     smallconst   001001
_main                                     text0        001568
_memset                                   text6        00197A
_show_pin_screen                          text1        0012D4
_strcmp                                   text4        0017F0
_tecla                                    bssCOMRAM    00001A
_tecla_ant                                bssCOMRAM    000019
btemp                                     temp         00002A
end_of_initialization                     cinit        0019F4
int$flags                                 temp         00002A
intlevel0                                 text         000000
intlevel1                                 text         000000
intlevel2                                 text         000000
intlevel3                                 text         000000
isa$std                                   (abs)        000001
isa$xinst                                 (abs)        000000
memset@c                                  cstackCOMRAM 000005
memset@dest                               cstackCOMRAM 000004
memset@n                                  cstackCOMRAM 000007
memset@p                                  cstackCOMRAM 000009
stackhi                                   (abs)        000000
stacklo                                   (abs)        000000
start                                     init         00008A
start_initialization                      cinit        0019D6
strcmp@l                                  cstackCOMRAM 000004
strcmp@r                                  cstackCOMRAM 000005
ttemp5                                    temp         00002B
ttemp6                                    temp         00002E
ttemp7                                    temp         000032
wtemp8                                    temp         00002B


MODULE INFORMATION

Module		Function		Class		Link	Load	Size
keypad.c
		_KPD_GetKey    		CODE           	1076	0000	606

keypad.c estimated size: 606

mcc_generated_files/interrupt_manager.c
		_INTERRUPT_Initialize		CODE           	1B36	0000	4
		_INTERRUPT_InterruptManager		CODE           	0008	0000	130

mcc_generated_files/interrupt_manager.c estimated size: 134

mcc_generated_files/pin_manager.c
		_PIN_MANAGER_Initialize		CODE           	190A	0000	56

mcc_generated_files/pin_manager.c estimated size: 56

lcd_i2c.c
		_LCD_Init      		CODE           	1670	0000	150
		_LCD_SendChar  		CODE           	1AE0	0000	14
		_LCD_SendByte  		CODE           	1A68	0000	30
		_LCD_SendNibble		CODE           	185A	0000	64
		_LCD_SetCursor 		CODE           	189A	0000	56
		_LCD_SendString		CODE           	18D2	0000	56
		_I2C_Write     		CODE           	1706	0000	120
		_LCD_SendByteI2C		CODE           	1AA2	0000	24
		_I2C_Stop      		CODE           	19FE	0000	36
		_LCD_Clear     		CODE           	1A86	0000	28
		_I2C_Start     		CODE           	1A22	0000	36

lcd_i2c.c estimated size: 614

mcc_generated_files/adc.c
		_ADC_Initialize		CODE           	1AD0	0000	16

mcc_generated_files/adc.c estimated size: 16

mcc_generated_files/ext_int.c
		_INT0_SetInterruptHandler		CODE           	1B0E	0000	10
		_INT1_SetInterruptHandler		CODE           	1B04	0000	10
		_EXT_INT_Initialize		CODE           	1942	0000	56
		_INT2_SetInterruptHandler		CODE           	1AFA	0000	10
		_INT0_CallBack 		CODE           	1B30	0000	6
		_INT1_CallBack 		CODE           	1A46	0000	34
		_INT2_DefaultInterruptHandler		CODE           	1B3C	0000	2
		_INT2_CallBack 		CODE           	19AA	0000	44
		_INT0_ISR      		CODE           	1B28	0000	8
		_INT1_ISR      		CODE           	1B20	0000	8
		_INT2_ISR      		CODE           	1B18	0000	8

mcc_generated_files/ext_int.c estimated size: 196

shared
		_keys          		SMALLCONST     	1001	0000	16
		__initialization		CODE           	19D6	0000	30
		LCD_SetCursor@row_offsets		SMALLCONST     	1011	0000	4

shared estimated size: 50

mcc_generated_files/mcc.c
		_OSCILLATOR_Initialize		CODE           	1AEE	0000	12
		_SYSTEM_Initialize		CODE           	1ABA	0000	22

mcc_generated_files/mcc.c estimated size: 34

C:\Program Files\Microchip\xc8\v3.00\pic\sources\c99\common\strcmp.c
		_strcmp        		CODE           	17F0	0000	106

C:\Program Files\Microchip\xc8\v3.00\pic\sources\c99\common\strcmp.c estimated size: 106

C:\Program Files\Microchip\xc8\v3.00\pic\sources\c99\common\memset.c
		_memset        		CODE           	197A	0000	48

C:\Program Files\Microchip\xc8\v3.00\pic\sources\c99\common\memset.c estimated size: 48

Alarm_Status.c
		_show_pin_screen		CODE           	12D4	0000	354
		_armed_alarm   		CODE           	1B3A	0000	2
		_alarm_disarmed		CODE           	177E	0000	114
		_alert_alarm   		CODE           	1436	0000	306

Alarm_Status.c estimated size: 776

main.c
		_main          		CODE           	1568	0000	264

main.c estimated size: 264

